; Function Attrs: nounwind uwtable
define internal ptr @unicode_replace(ptr readnone captures(none) %0, ptr noundef %1) #0 {
  %3 = alloca ptr, align 8
  %4 = alloca ptr, align 8
  %5 = alloca ptr, align 8
  %6 = alloca i64, align 8
  call void @llvm.lifetime.start.p0(i64 8, ptr nonnull %3) #4
  call void @llvm.lifetime.start.p0(i64 8, ptr nonnull %4) #4
  call void @llvm.lifetime.start.p0(i64 8, ptr nonnull %5) #4
  call void @llvm.lifetime.start.p0(i64 8, ptr nonnull %6) #4
  store i64 -1, ptr %6, align 8, !tbaa !10
  %7 = call i32 (ptr, ptr, ...) @PyArg_ParseTuple(ptr noundef %1, ptr noundef nonnull @.str.393, ptr noundef nonnull %3, ptr noundef nonnull %4, ptr noundef nonnull %5, ptr noundef nonnull %6) #4
  %.not = icmp eq i32 %7, 0
  br i1 %.not, label %29, label %8

8:                                                ; preds = %2
  %9 = load ptr, ptr %3, align 8, !tbaa !8
  %10 = call ptr @Py_GetConstantBorrowed(i32 noundef 0) #4
  %11 = icmp eq ptr %9, %10
  br i1 %11, label %12, label %13

12:                                               ; preds = %8
  store ptr null, ptr %3, align 8, !tbaa !8
  br label %13

13:                                               ; preds = %8, %12
  %14 = load ptr, ptr %4, align 8, !tbaa !8
  %15 = call ptr @Py_GetConstantBorrowed(i32 noundef 0) #4
  %16 = icmp eq ptr %14, %15
  br i1 %16, label %17, label %18

17:                                               ; preds = %13
  store ptr null, ptr %4, align 8, !tbaa !8
  br label %18

18:                                               ; preds = %13, %17
  %19 = load ptr, ptr %5, align 8, !tbaa !8
  %20 = call ptr @Py_GetConstantBorrowed(i32 noundef 0) #4
  %21 = icmp eq ptr %19, %20
  br i1 %21, label %22, label %._crit_edge

._crit_edge:                                      ; preds = %18
  %.pre = load ptr, ptr %5, align 8, !tbaa !8
  br label %23

22:                                               ; preds = %18
  store ptr null, ptr %5, align 8, !tbaa !8
  br label %23

23:                                               ; preds = %._crit_edge, %22
  %24 = phi ptr [ %.pre, %._crit_edge ], [ null, %22 ]
  %25 = load ptr, ptr %3, align 8, !tbaa !8
  %26 = load ptr, ptr %4, align 8, !tbaa !8
  %27 = load i64, ptr %6, align 8, !tbaa !10
  %28 = call ptr @PyUnicode_Replace(ptr noundef %25, ptr noundef %26, ptr noundef %24, i64 noundef %27) #4
  br label %29

29:                                               ; preds = %2, %23
  %.0 = phi ptr [ %28, %23 ], [ null, %2 ]
  call void @llvm.lifetime.end.p0(i64 8, ptr nonnull %6) #4
  call void @llvm.lifetime.end.p0(i64 8, ptr nonnull %5) #4
  call void @llvm.lifetime.end.p0(i64 8, ptr nonnull %4) #4
  call void @llvm.lifetime.end.p0(i64 8, ptr nonnull %3) #4
  ret ptr %.0
}